target datalayout = "e-m:e-p270:32:32-p271:32:32-p272:64:64-i64:64-i128:128-f80:128-n8:16:32:64-S128"
target triple = "x86_64-unknown-linux-gnu"

%"class.std::variant" = type { %"struct.std::__detail::__variant::_Variant_base.base", [7 x i8] }
%"struct.std::__detail::__variant::_Variant_base.base" = type { %"struct.std::__detail::__variant::_Move_assign_base.base" }
%"struct.std::__detail::__variant::_Move_assign_base.base" = type { %"struct.std::__detail::__variant::_Copy_assign_base.base" }
%"struct.std::__detail::__variant::_Copy_assign_base.base" = type { %"struct.std::__detail::__variant::_Move_ctor_base.base" }
%"struct.std::__detail::__variant::_Move_ctor_base.base" = type { %"struct.std::__detail::__variant::_Copy_ctor_base.base" }
%"struct.std::__detail::__variant::_Copy_ctor_base.base" = type { %"struct.std::__detail::__variant::_Variant_storage.base" }
%"struct.std::__detail::__variant::_Variant_storage.base" = type <{ %"union.std::__detail::__variant::_Variadic_union", i8 }>
%"union.std::__detail::__variant::_Variadic_union" = type { %"union.std::__detail::__variant::_Variadic_union.202" }
%"union.std::__detail::__variant::_Variadic_union.202" = type { %"union.std::__detail::__variant::_Variadic_union.204" }
%"union.std::__detail::__variant::_Variadic_union.204" = type { %"struct.std::__detail::__variant::_Uninitialized.205" }
%"struct.std::__detail::__variant::_Uninitialized.205" = type { ptr }
%"class.hermes::ESTree::Node" = type { %"class.llvh::ilist_node", i32, i32, %"class.llvh::SMRange", %"class.llvh::SMLoc" }
%"class.llvh::ilist_node" = type { %"class.llvh::ilist_node_impl" }
%"class.llvh::ilist_node_impl" = type { %"class.llvh::ilist_node_base" }
%"class.llvh::ilist_node_base" = type { ptr, ptr }
%"class.llvh::SMRange" = type { %"class.llvh::SMLoc", %"class.llvh::SMLoc" }
%"class.llvh::SMLoc" = type { ptr }
%"class.hermes::ESTree::WhileStatementNode" = type { %"class.hermes::ESTree::LoopStatementNode.base", ptr, ptr }
%"class.hermes::ESTree::LoopStatementNode.base" = type <{ %"class.hermes::ESTree::StatementNode", %"class.hermes::ESTree::LoopStatementDecoration" }>
%"class.hermes::ESTree::StatementNode" = type { %"class.hermes::ESTree::Node" }
%"class.hermes::ESTree::LoopStatementDecoration" = type { %"class.hermes::ESTree::LabelDecorationBase" }
%"class.hermes::ESTree::LabelDecorationBase" = type { i32 }

; Function Attrs: mustprogress nounwind uwtable
define internal void @_ZN6hermes6ESTree24RecursiveVisitorDispatchINS_12_GLOBAL__N_119DependencyExtractorELb1EE13visitChildrenERS3_PNS0_18WhileStatementNodeE(ptr noundef nonnull align 8 dereferenceable(145) %v, ptr noundef %node) #0 align 2 {
entry:
  %v.addr = alloca ptr, align 8
  %node.addr = alloca ptr, align 8
  %coerce = alloca %"class.std::variant", align 8
  %coerce2 = alloca %"class.std::variant", align 8
  store ptr %v, ptr %v.addr, align 8
  store ptr %node, ptr %node.addr, align 8
  %0 = load ptr, ptr %v.addr, align 8
  %1 = load ptr, ptr %node.addr, align 8
  %_body = getelementptr inbounds %"class.hermes::ESTree::WhileStatementNode", ptr %1, i32 0, i32 1
  %2 = load ptr, ptr %_body, align 8
  %3 = load ptr, ptr %node.addr, align 8
  %call = call { ptr, i8 } @_ZN6hermes6ESTree24RecursiveVisitorDispatchINS_12_GLOBAL__N_119DependencyExtractorELb1EE5visitERS3_PNS0_4NodeES7_(ptr noundef nonnull align 8 dereferenceable(145) %0, ptr noundef %2, ptr noundef %3)
  %4 = getelementptr inbounds { ptr, i8 }, ptr %coerce, i32 0, i32 0
  %5 = extractvalue { ptr, i8 } %call, 0
  store ptr %5, ptr %4, align 8
  %6 = getelementptr inbounds { ptr, i8 }, ptr %coerce, i32 0, i32 1
  %7 = extractvalue { ptr, i8 } %call, 1
  store i8 %7, ptr %6, align 8
  %8 = load ptr, ptr %v.addr, align 8
  %9 = load ptr, ptr %node.addr, align 8
  %_test = getelementptr inbounds %"class.hermes::ESTree::WhileStatementNode", ptr %9, i32 0, i32 2
  %10 = load ptr, ptr %_test, align 8
  %11 = load ptr, ptr %node.addr, align 8
  %call1 = call { ptr, i8 } @_ZN6hermes6ESTree24RecursiveVisitorDispatchINS_12_GLOBAL__N_119DependencyExtractorELb1EE5visitERS3_PNS0_4NodeES7_(ptr noundef nonnull align 8 dereferenceable(145) %8, ptr noundef %10, ptr noundef %11)
  %12 = getelementptr inbounds { ptr, i8 }, ptr %coerce2, i32 0, i32 0
  %13 = extractvalue { ptr, i8 } %call1, 0
  store ptr %13, ptr %12, align 8
  %14 = getelementptr inbounds { ptr, i8 }, ptr %coerce2, i32 0, i32 1
  %15 = extractvalue { ptr, i8 } %call1, 1
  store i8 %15, ptr %14, align 8
  ret void
}